; ModuleID = 'source-C-CXX/46/5663.cpp'
source_filename = "source-C-CXX/46/5663.cpp"
target datalayout = "e-m:e-p270:32:32-p271:32:32-p272:64:64-i64:64-f80:128-n8:16:32:64-S128"
target triple = "x86_64-pc-linux-gnu"

%"class.std::ios_base::Init" = type { i8 }
%"class.std::basic_istream" = type { i32 (...)**, i64, %"class.std::basic_ios" }
%"class.std::basic_ios" = type { %"class.std::ios_base", %"class.std::basic_ostream"*, i8, i8, %"class.std::basic_streambuf"*, %"class.std::ctype"*, %"class.std::num_put"*, %"class.std::num_get"* }
%"class.std::ios_base" = type { i32 (...)**, i64, i64, i32, i32, i32, %"struct.std::ios_base::_Callback_list"*, %"struct.std::ios_base::_Words", [8 x %"struct.std::ios_base::_Words"], i32, %"struct.std::ios_base::_Words"*, %"class.std::locale" }
%"struct.std::ios_base::_Callback_list" = type { %"struct.std::ios_base::_Callback_list"*, void (i32, %"class.std::ios_base"*, i32)*, i32, i32 }
%"struct.std::ios_base::_Words" = type { i8*, i64 }
%"class.std::locale" = type { %"class.std::locale::_Impl"* }
%"class.std::locale::_Impl" = type { i32, %"class.std::locale::facet"**, i64, %"class.std::locale::facet"**, i8** }
%"class.std::locale::facet" = type <{ i32 (...)**, i32, [4 x i8] }>
%"class.std::basic_ostream" = type { i32 (...)**, %"class.std::basic_ios" }
%"class.std::basic_streambuf" = type { i32 (...)**, i8*, i8*, i8*, i8*, i8*, i8*, %"class.std::locale" }
%"class.std::ctype" = type <{ %"class.std::locale::facet.base", [4 x i8], %struct.__locale_struct*, i8, [7 x i8], i32*, i32*, i16*, i8, [256 x i8], [256 x i8], i8, [6 x i8] }>
%"class.std::locale::facet.base" = type <{ i32 (...)**, i32 }>
%struct.__locale_struct = type { [13 x %struct.__locale_data*], i16*, i32*, i32*, [13 x i8*] }
%struct.__locale_data = type opaque
%"class.std::num_put" = type { %"class.std::locale::facet.base", [4 x i8] }
%"class.std::num_get" = type { %"class.std::locale::facet.base", [4 x i8] }

@_ZStL8__ioinit = internal global %"class.std::ios_base::Init" zeroinitializer, align 1
@__dso_handle = external hidden global i8
@data = dso_local global [1000 x i32] zeroinitializer, align 16
@n = dso_local global i32 0, align 4
@m = dso_local local_unnamed_addr global i32 0, align 4
@_ZSt3cin = external global %"class.std::basic_istream", align 8
@_ZSt4cout = external global %"class.std::basic_ostream", align 8
@llvm.global_ctors = appending global [1 x { i32, void ()*, i8* }] [{ i32, void ()*, i8* } { i32 65535, void ()* @_GLOBAL__sub_I_5663.cpp, i8* null }]

declare void @_ZNSt8ios_base4InitC1Ev(%"class.std::ios_base::Init"* nonnull align 1 dereferenceable(1)) unnamed_addr #0

; Function Attrs: nounwind
declare void @_ZNSt8ios_base4InitD1Ev(%"class.std::ios_base::Init"* nonnull align 1 dereferenceable(1)) unnamed_addr #1

; Function Attrs: nofree nounwind
declare i32 @__cxa_atexit(void (i8*)*, i8*, i8*) local_unnamed_addr #2

; Function Attrs: mustprogress norecurse sspstrong uwtable
define dso_local i32 @main() local_unnamed_addr #3 {
  %1 = alloca i8, align 1
  %2 = tail call nonnull align 8 dereferenceable(16) %"class.std::basic_istream"* @_ZNSirsERi(%"class.std::basic_istream"* nonnull align 8 dereferenceable(16) @_ZSt3cin, i32* nonnull align 4 dereferenceable(4) @n)
  %3 = load i32, i32* @n, align 4, !tbaa !5
  %4 = icmp slt i32 %3, 1
  br i1 %4, label %34, label %15

5:                                                ; preds = %15
  %6 = add i32 %20, 1
  %7 = icmp slt i32 %20, 2
  br i1 %7, label %34, label %8

8:                                                ; preds = %5
  %9 = lshr i32 %20, 1
  %10 = zext i32 %9 to i64
  %11 = and i64 %10, 1
  %12 = icmp eq i32 %9, 1
  br i1 %12, label %23, label %13

13:                                               ; preds = %8
  %14 = and i64 %10, 2147483646
  br label %39

15:                                               ; preds = %0, %15
  %16 = phi i64 [ %19, %15 ], [ 1, %0 ]
  %17 = getelementptr inbounds [1000 x i32], [1000 x i32]* @data, i64 0, i64 %16
  %18 = tail call nonnull align 8 dereferenceable(16) %"class.std::basic_istream"* @_ZNSirsERi(%"class.std::basic_istream"* nonnull align 8 dereferenceable(16) @_ZSt3cin, i32* nonnull align 4 dereferenceable(4) %17)
  %19 = add nuw nsw i64 %16, 1
  %20 = load i32, i32* @n, align 4, !tbaa !5
  %21 = sext i32 %20 to i64
  %22 = icmp slt i64 %16, %21
  br i1 %22, label %15, label %5, !llvm.loop !9

23:                                               ; preds = %39, %8
  %24 = phi i64 [ 1, %8 ], [ %57, %39 ]
  %25 = icmp eq i64 %11, 0
  br i1 %25, label %34, label %26

26:                                               ; preds = %23
  %27 = getelementptr inbounds [1000 x i32], [1000 x i32]* @data, i64 0, i64 %24
  %28 = load i32, i32* %27, align 4, !tbaa !5
  %29 = trunc i64 %24 to i32
  %30 = sub i32 %6, %29
  %31 = sext i32 %30 to i64
  %32 = getelementptr inbounds [1000 x i32], [1000 x i32]* @data, i64 0, i64 %31
  %33 = load i32, i32* %32, align 4, !tbaa !5
  store i32 %33, i32* %27, align 4, !tbaa !5
  store i32 %28, i32* %32, align 4, !tbaa !5
  br label %34

34:                                               ; preds = %26, %23, %0, %5
  %35 = load i32, i32* getelementptr inbounds ([1000 x i32], [1000 x i32]* @data, i64 0, i64 1), align 4, !tbaa !5
  %36 = tail call nonnull align 8 dereferenceable(8) %"class.std::basic_ostream"* @_ZNSolsEi(%"class.std::basic_ostream"* nonnull align 8 dereferenceable(8) @_ZSt4cout, i32 %35)
  %37 = load i32, i32* @n, align 4, !tbaa !5
  %38 = icmp slt i32 %37, 2
  br i1 %38, label %60, label %61

39:                                               ; preds = %39, %13
  %40 = phi i64 [ 1, %13 ], [ %57, %39 ]
  %41 = phi i64 [ %14, %13 ], [ %58, %39 ]
  %42 = getelementptr inbounds [1000 x i32], [1000 x i32]* @data, i64 0, i64 %40
  %43 = load i32, i32* %42, align 4, !tbaa !5
  %44 = trunc i64 %40 to i32
  %45 = sub i32 %6, %44
  %46 = sext i32 %45 to i64
  %47 = getelementptr inbounds [1000 x i32], [1000 x i32]* @data, i64 0, i64 %46
  %48 = load i32, i32* %47, align 4, !tbaa !5
  store i32 %48, i32* %42, align 4, !tbaa !5
  store i32 %43, i32* %47, align 4, !tbaa !5
  %49 = add nuw nsw i64 %40, 1
  %50 = getelementptr inbounds [1000 x i32], [1000 x i32]* @data, i64 0, i64 %49
  %51 = load i32, i32* %50, align 4, !tbaa !5
  %52 = trunc i64 %49 to i32
  %53 = sub i32 %6, %52
  %54 = sext i32 %53 to i64
  %55 = getelementptr inbounds [1000 x i32], [1000 x i32]* @data, i64 0, i64 %54
  %56 = load i32, i32* %55, align 4, !tbaa !5
  store i32 %56, i32* %50, align 4, !tbaa !5
  store i32 %51, i32* %55, align 4, !tbaa !5
  %57 = add nuw nsw i64 %40, 2
  %58 = add i64 %41, -2
  %59 = icmp eq i64 %58, 0
  br i1 %59, label %23, label %39, !llvm.loop !11

60:                                               ; preds = %61, %34
  ret i32 0

61:                                               ; preds = %34, %61
  %62 = phi i64 [ %67, %61 ], [ 2, %34 ]
  call void @llvm.lifetime.start.p0i8(i64 1, i8* nonnull %1)
  store i8 32, i8* %1, align 1, !tbaa !12
  %63 = call nonnull align 8 dereferenceable(8) %"class.std::basic_ostream"* @_ZSt16__ostream_insertIcSt11char_traitsIcEERSt13basic_ostreamIT_T0_ES6_PKS3_l(%"class.std::basic_ostream"* nonnull align 8 dereferenceable(8) @_ZSt4cout, i8* nonnull %1, i64 1)
  call void @llvm.lifetime.end.p0i8(i64 1, i8* nonnull %1)
  %64 = getelementptr inbounds [1000 x i32], [1000 x i32]* @data, i64 0, i64 %62
  %65 = load i32, i32* %64, align 4, !tbaa !5
  %66 = call nonnull align 8 dereferenceable(8) %"class.std::basic_ostream"* @_ZNSolsEi(%"class.std::basic_ostream"* nonnull align 8 dereferenceable(8) %63, i32 %65)
  %67 = add nuw nsw i64 %62, 1
  %68 = load i32, i32* @n, align 4, !tbaa !5
  %69 = sext i32 %68 to i64
  %70 = icmp slt i64 %62, %69
  br i1 %70, label %61, label %60, !llvm.loop !13
}

declare nonnull align 8 dereferenceable(16) %"class.std::basic_istream"* @_ZNSirsERi(%"class.std::basic_istream"* nonnull align 8 dereferenceable(16), i32* nonnull align 4 dereferenceable(4)) local_unnamed_addr #0

declare nonnull align 8 dereferenceable(8) %"class.std::basic_ostream"* @_ZNSolsEi(%"class.std::basic_ostream"* nonnull align 8 dereferenceable(8), i32) local_unnamed_addr #0

declare nonnull align 8 dereferenceable(8) %"class.std::basic_ostream"* @_ZSt16__ostream_insertIcSt11char_traitsIcEERSt13basic_ostreamIT_T0_ES6_PKS3_l(%"class.std::basic_ostream"* nonnull align 8 dereferenceable(8), i8*, i64) local_unnamed_addr #0

; Function Attrs: sspstrong uwtable
define internal void @_GLOBAL__sub_I_5663.cpp() #4 section ".text.startup" {
  tail call void @_ZNSt8ios_base4InitC1Ev(%"class.std::ios_base::Init"* nonnull align 1 dereferenceable(1) @_ZStL8__ioinit)
  %1 = tail call i32 @__cxa_atexit(void (i8*)* bitcast (void (%"class.std::ios_base::Init"*)* @_ZNSt8ios_base4InitD1Ev to void (i8*)*), i8* getelementptr inbounds (%"class.std::ios_base::Init", %"class.std::ios_base::Init"* @_ZStL8__ioinit, i64 0, i32 0), i8* nonnull @__dso_handle) #6
  ret void
}

; Function Attrs: argmemonly nofree nosync nounwind willreturn
declare void @llvm.lifetime.start.p0i8(i64 immarg, i8* nocapture) #5

; Function Attrs: argmemonly nofree nosync nounwind willreturn
declare void @llvm.lifetime.end.p0i8(i64 immarg, i8* nocapture) #5


!llvm.module.flags = !{!0, !1, !2, !3}
!llvm.ident = !{!4}

!0 = !{i32 1, !"wchar_size", i32 4}
!1 = !{i32 7, !"PIC Level", i32 2}
!2 = !{i32 7, !"PIE Level", i32 2}
!3 = !{i32 7, !"uwtable", i32 1}
!4 = !{!"clang version 13.0.0"}
!5 = !{!6, !6, i64 0}
!6 = !{!"int", !7, i64 0}
!7 = !{!"omnipotent char", !8, i64 0}
!8 = !{!"Simple C++ TBAA"}
!9 = distinct !{!9, !10}
!10 = !{!"llvm.loop.mustprogress"}
!11 = distinct !{!11, !10}
!12 = !{!7, !7, i64 0}
!13 = distinct !{!13, !10}
